target datalayout = "e-m:e-p270:32:32-p271:32:32-p272:64:64-i64:64-i128:128-f80:128-n8:16:32:64-S128"
target triple = "x86_64-pc-linux-gnu"

%struct.FunctionCallInfoBaseData = type { ptr, ptr, ptr, i32, i8, i16, [0 x %struct.NullableDatum] }
%struct.NullableDatum = type { i64, i8 }

; Function Attrs: inlinehint nounwind uwtable
define internal i64 @PointerGetDatum(ptr noundef %0) #3 {
  %2 = alloca ptr, align 8
  store ptr %0, ptr %2, align 8
  %3 = load ptr, ptr %2, align 8
  %4 = ptrtoint ptr %3 to i64
  ret i64 %4
}

; Function Attrs: inlinehint nounwind uwtable
define internal zeroext i1 @DatumGetBool(i64 noundef %0) #3 {
  %2 = alloca i64, align 8
  store i64 %0, ptr %2, align 8
  %3 = load i64, ptr %2, align 8
  %4 = icmp ne i64 %3, 0
  ret i1 %4
}

; Function Attrs: inlinehint nounwind uwtable
define internal i64 @DatumGetInt64(i64 noundef %0) #3 {
  %2 = alloca i64, align 8
  store i64 %0, ptr %2, align 8
  %3 = load i64, ptr %2, align 8
  ret i64 %3
}

; Function Attrs: inlinehint nounwind uwtable
define internal ptr @DatumGetPointer(i64 noundef %0) #3 {
  %2 = alloca i64, align 8
  store i64 %0, ptr %2, align 8
  %3 = load i64, ptr %2, align 8
  %4 = inttoptr i64 %3 to ptr
  ret ptr %4
}

; Function Attrs: nounwind uwtable
define dso_local i64 @pg_read_file_off_len_missing(ptr noundef %0) #0 {
  %2 = alloca i64, align 8
  %3 = alloca ptr, align 8
  %4 = alloca ptr, align 8
  %5 = alloca i64, align 8
  %6 = alloca i64, align 8
  %7 = alloca i8, align 1
  %8 = alloca ptr, align 8
  %9 = alloca i32, align 4
  store ptr %0, ptr %3, align 8
  call void @llvm.lifetime.start.p0(i64 8, ptr %4) #9
  %10 = load ptr, ptr %3, align 8
  %11 = getelementptr inbounds nuw %struct.FunctionCallInfoBaseData, ptr %10, i32 0, i32 6
  %12 = getelementptr inbounds [0 x %struct.NullableDatum], ptr %11, i64 0, i64 0
  %13 = getelementptr inbounds nuw %struct.NullableDatum, ptr %12, i32 0, i32 0
  %14 = load i64, ptr %13, align 8
  %15 = call ptr @DatumGetPointer(i64 noundef %14)
  %16 = call ptr @pg_detoast_datum_packed(ptr noundef %15)
  store ptr %16, ptr %4, align 8
  call void @llvm.lifetime.start.p0(i64 8, ptr %5) #9
  %17 = load ptr, ptr %3, align 8
  %18 = getelementptr inbounds nuw %struct.FunctionCallInfoBaseData, ptr %17, i32 0, i32 6
  %19 = getelementptr inbounds [0 x %struct.NullableDatum], ptr %18, i64 0, i64 1
  %20 = getelementptr inbounds nuw %struct.NullableDatum, ptr %19, i32 0, i32 0
  %21 = load i64, ptr %20, align 8
  %22 = call i64 @DatumGetInt64(i64 noundef %21)
  store i64 %22, ptr %5, align 8
  call void @llvm.lifetime.start.p0(i64 8, ptr %6) #9
  %23 = load ptr, ptr %3, align 8
  %24 = getelementptr inbounds nuw %struct.FunctionCallInfoBaseData, ptr %23, i32 0, i32 6
  %25 = getelementptr inbounds [0 x %struct.NullableDatum], ptr %24, i64 0, i64 2
  %26 = getelementptr inbounds nuw %struct.NullableDatum, ptr %25, i32 0, i32 0
  %27 = load i64, ptr %26, align 8
  %28 = call i64 @DatumGetInt64(i64 noundef %27)
  store i64 %28, ptr %6, align 8
  call void @llvm.lifetime.start.p0(i64 1, ptr %7) #9
  %29 = load ptr, ptr %3, align 8
  %30 = getelementptr inbounds nuw %struct.FunctionCallInfoBaseData, ptr %29, i32 0, i32 6
  %31 = getelementptr inbounds [0 x %struct.NullableDatum], ptr %30, i64 0, i64 3
  %32 = getelementptr inbounds nuw %struct.NullableDatum, ptr %31, i32 0, i32 0
  %33 = load i64, ptr %32, align 8
  %34 = call zeroext i1 @DatumGetBool(i64 noundef %33)
  %35 = zext i1 %34 to i8
  store i8 %35, ptr %7, align 1
  call void @llvm.lifetime.start.p0(i64 8, ptr %8) #9
  %36 = load ptr, ptr %4, align 8
  %37 = load i64, ptr %5, align 8
  %38 = load i64, ptr %6, align 8
  %39 = load i8, ptr %7, align 1, !range !4, !noundef !5
  %40 = trunc i8 %39 to i1
  %41 = call ptr @pg_read_file_common(ptr noundef %36, i64 noundef %37, i64 noundef %38, i1 noundef zeroext false, i1 noundef zeroext %40)
  store ptr %41, ptr %8, align 8
  %42 = load ptr, ptr %8, align 8
  %43 = icmp ne ptr %42, null
  br i1 %43, label %50, label %44

44:                                               ; preds = %1
  br label %45

45:                                               ; preds = %44
  %46 = load ptr, ptr %3, align 8
  %47 = getelementptr inbounds nuw %struct.FunctionCallInfoBaseData, ptr %46, i32 0, i32 4
  store i8 1, ptr %47, align 4
  store i64 0, ptr %2, align 8
  store i32 1, ptr %9, align 4
  br label %53

48:                                               ; No predecessors!
  br label %49

49:                                               ; preds = %48
  br label %50

50:                                               ; preds = %49, %1
  %51 = load ptr, ptr %8, align 8
  %52 = call i64 @PointerGetDatum(ptr noundef %51)
  store i64 %52, ptr %2, align 8
  store i32 1, ptr %9, align 4
  br label %53

53:                                               ; preds = %50, %45
  call void @llvm.lifetime.end.p0(i64 8, ptr %8) #9
  call void @llvm.lifetime.end.p0(i64 1, ptr %7) #9
  call void @llvm.lifetime.end.p0(i64 8, ptr %6) #9
  call void @llvm.lifetime.end.p0(i64 8, ptr %5) #9
  call void @llvm.lifetime.end.p0(i64 8, ptr %4) #9
  %54 = load i64, ptr %2, align 8
  ret i64 %54
}