; Function Attrs: nounwind uwtable
define dso_local i64 @pg_read_file_off_len_missing(ptr noundef captures(none) %0) local_unnamed_addr #0 {
  %2 = getelementptr inbounds nuw i8, ptr %0, i64 32
  %3 = load i64, ptr %2, align 8
  %4 = inttoptr i64 %3 to ptr
  %5 = tail call ptr @pg_detoast_datum_packed(ptr noundef %4) #9
  %6 = getelementptr inbounds nuw i8, ptr %0, i64 48
  %7 = load i64, ptr %6, align 8
  %8 = getelementptr inbounds nuw i8, ptr %0, i64 64
  %9 = load i64, ptr %8, align 8
  %10 = getelementptr inbounds nuw i8, ptr %0, i64 80
  %11 = load i64, ptr %10, align 8
  %12 = icmp ne i64 %11, 0
  %13 = tail call fastcc ptr @pg_read_file_common(ptr noundef %5, i64 noundef %7, i64 noundef %9, i1 noundef zeroext false, i1 noundef zeroext %12)
  %.not = icmp eq ptr %13, null
  br i1 %.not, label %14, label %16

14:                                               ; preds = %1
  %15 = getelementptr inbounds nuw i8, ptr %0, i64 28
  store i8 1, ptr %15, align 4
  br label %18

16:                                               ; preds = %1
  %17 = ptrtoint ptr %13 to i64
  br label %18

18:                                               ; preds = %16, %14
  %.0 = phi i64 [ %17, %16 ], [ 0, %14 ]
  ret i64 %.0
}